target datalayout = "e-m:e-p270:32:32-p271:32:32-p272:64:64-i64:64-i128:128-f80:128-n8:16:32:64-S128"
target triple = "x86_64-pc-linux-gnu"

%struct.dbcs_index = type { ptr, i8, i8 }

; Function Attrs: nounwind uwtable
define internal i64 @euc_jp_decode(ptr noundef %0, ptr noundef %1, ptr noundef %2, i64 noundef %3, ptr noundef %4) #0 {
  %6 = alloca i64, align 8
  %7 = alloca ptr, align 8
  %8 = alloca ptr, align 8
  %9 = alloca ptr, align 8
  %10 = alloca i64, align 8
  %11 = alloca ptr, align 8
  %12 = alloca i8, align 1
  %13 = alloca i32, align 4
  %14 = alloca i32, align 4
  %15 = alloca i8, align 1
  %16 = alloca i8, align 1
  %17 = alloca i8, align 1
  %18 = alloca i8, align 1
  store ptr %0, ptr %7, align 8, !tbaa !3
  store ptr %1, ptr %8, align 8, !tbaa !21
  store ptr %2, ptr %9, align 8, !tbaa !68
  store i64 %3, ptr %10, align 8, !tbaa !28
  store ptr %4, ptr %11, align 8, !tbaa !3
  br label %19

19:                                               ; preds = %315, %313, %5
  %20 = load i64, ptr %10, align 8, !tbaa !28
  %21 = icmp sgt i64 %20, 0
  br i1 %21, label %22, label %316

22:                                               ; preds = %19
  call void @llvm.lifetime.start.p0(i64 1, ptr %12) #9
  %23 = load ptr, ptr %9, align 8, !tbaa !68
  %24 = load ptr, ptr %23, align 8, !tbaa !17
  %25 = getelementptr i8, ptr %24, i64 0
  %26 = load i8, ptr %25, align 1, !tbaa !42
  store i8 %26, ptr %12, align 1, !tbaa !42
  call void @llvm.lifetime.start.p0(i64 4, ptr %13) #9
  %27 = load i8, ptr %12, align 1, !tbaa !42
  %28 = zext i8 %27 to i32
  %29 = icmp slt i32 %28, 128
  br i1 %29, label %30, label %49

30:                                               ; preds = %22
  br label %31

31:                                               ; preds = %30
  %32 = load ptr, ptr %11, align 8, !tbaa !3
  %33 = load i8, ptr %12, align 1, !tbaa !42
  %34 = zext i8 %33 to i32
  %35 = call i32 @_PyUnicodeWriter_WriteChar(ptr noundef %32, i32 noundef %34)
  %36 = icmp slt i32 %35, 0
  br i1 %36, label %37, label %38

37:                                               ; preds = %31
  store i64 -4, ptr %6, align 8
  store i32 1, ptr %14, align 4
  br label %313

38:                                               ; preds = %31
  br label %39

39:                                               ; preds = %38
  br label %40

40:                                               ; preds = %39
  br label %41

41:                                               ; preds = %40
  %42 = load ptr, ptr %9, align 8, !tbaa !68
  %43 = load ptr, ptr %42, align 8, !tbaa !17
  %44 = getelementptr i8, ptr %43, i64 1
  store ptr %44, ptr %42, align 8, !tbaa !17
  %45 = load i64, ptr %10, align 8, !tbaa !28
  %46 = sub i64 %45, 1
  store i64 %46, ptr %10, align 8, !tbaa !28
  br label %47

47:                                               ; preds = %41
  br label %48

48:                                               ; preds = %47
  store i32 2, ptr %14, align 4
  br label %313, !llvm.loop !85

49:                                               ; preds = %22
  %50 = load i8, ptr %12, align 1, !tbaa !42
  %51 = zext i8 %50 to i32
  %52 = icmp eq i32 %51, 142
  br i1 %52, label %53, label %97

53:                                               ; preds = %49
  call void @llvm.lifetime.start.p0(i64 1, ptr %15) #9
  br label %54

54:                                               ; preds = %53
  %55 = load i64, ptr %10, align 8, !tbaa !28
  %56 = icmp slt i64 %55, 2
  br i1 %56, label %57, label %58

57:                                               ; preds = %54
  store i64 -2, ptr %6, align 8
  store i32 1, ptr %14, align 4
  br label %94

58:                                               ; preds = %54
  br label %59

59:                                               ; preds = %58
  br label %60

60:                                               ; preds = %59
  %61 = load ptr, ptr %9, align 8, !tbaa !68
  %62 = load ptr, ptr %61, align 8, !tbaa !17
  %63 = getelementptr i8, ptr %62, i64 1
  %64 = load i8, ptr %63, align 1, !tbaa !42
  store i8 %64, ptr %15, align 1, !tbaa !42
  %65 = load i8, ptr %15, align 1, !tbaa !42
  %66 = zext i8 %65 to i32
  %67 = icmp sge i32 %66, 161
  br i1 %67, label %68, label %92

68:                                               ; preds = %60
  %69 = load i8, ptr %15, align 1, !tbaa !42
  %70 = zext i8 %69 to i32
  %71 = icmp sle i32 %70, 223
  br i1 %71, label %72, label %92

72:                                               ; preds = %68
  br label %73

73:                                               ; preds = %72
  %74 = load ptr, ptr %11, align 8, !tbaa !3
  %75 = load i8, ptr %15, align 1, !tbaa !42
  %76 = zext i8 %75 to i32
  %77 = add i32 65216, %76
  %78 = call i32 @_PyUnicodeWriter_WriteChar(ptr noundef %74, i32 noundef %77)
  %79 = icmp slt i32 %78, 0
  br i1 %79, label %80, label %81

80:                                               ; preds = %73
  store i64 -4, ptr %6, align 8
  store i32 1, ptr %14, align 4
  br label %94

81:                                               ; preds = %73
  br label %82

82:                                               ; preds = %81
  br label %83

83:                                               ; preds = %82
  br label %84

84:                                               ; preds = %83
  %85 = load ptr, ptr %9, align 8, !tbaa !68
  %86 = load ptr, ptr %85, align 8, !tbaa !17
  %87 = getelementptr i8, ptr %86, i64 2
  store ptr %87, ptr %85, align 8, !tbaa !17
  %88 = load i64, ptr %10, align 8, !tbaa !28
  %89 = sub i64 %88, 2
  store i64 %89, ptr %10, align 8, !tbaa !28
  br label %90

90:                                               ; preds = %84
  br label %91

91:                                               ; preds = %90
  br label %93

92:                                               ; preds = %68, %60
  store i64 1, ptr %6, align 8
  store i32 1, ptr %14, align 4
  br label %94

93:                                               ; preds = %91
  store i32 0, ptr %14, align 4
  br label %94

94:                                               ; preds = %93, %92, %80, %57
  call void @llvm.lifetime.end.p0(i64 1, ptr %15) #9
  %95 = load i32, ptr %14, align 4
  switch i32 %95, label %313 [
    i32 0, label %96
  ]

96:                                               ; preds = %94
  br label %312

97:                                               ; preds = %49
  %98 = load i8, ptr %12, align 1, !tbaa !42
  %99 = zext i8 %98 to i32
  %100 = icmp eq i32 %99, 143
  br i1 %100, label %101, label %199

101:                                              ; preds = %97
  call void @llvm.lifetime.start.p0(i64 1, ptr %16) #9
  call void @llvm.lifetime.start.p0(i64 1, ptr %17) #9
  br label %102

102:                                              ; preds = %101
  %103 = load i64, ptr %10, align 8, !tbaa !28
  %104 = icmp slt i64 %103, 3
  br i1 %104, label %105, label %106

105:                                              ; preds = %102
  store i64 -2, ptr %6, align 8
  store i32 1, ptr %14, align 4
  br label %196

106:                                              ; preds = %102
  br label %107

107:                                              ; preds = %106
  br label %108

108:                                              ; preds = %107
  %109 = load ptr, ptr %9, align 8, !tbaa !68
  %110 = load ptr, ptr %109, align 8, !tbaa !17
  %111 = getelementptr i8, ptr %110, i64 1
  %112 = load i8, ptr %111, align 1, !tbaa !42
  store i8 %112, ptr %16, align 1, !tbaa !42
  %113 = load ptr, ptr %9, align 8, !tbaa !68
  %114 = load ptr, ptr %113, align 8, !tbaa !17
  %115 = getelementptr i8, ptr %114, i64 2
  %116 = load i8, ptr %115, align 1, !tbaa !42
  store i8 %116, ptr %17, align 1, !tbaa !42
  %117 = load i8, ptr %16, align 1, !tbaa !42
  %118 = zext i8 %117 to i32
  %119 = xor i32 %118, 128
  %120 = sext i32 %119 to i64
  %121 = getelementptr [256 x %struct.dbcs_index], ptr @jisx0212_decmap, i64 0, i64 %120
  %122 = getelementptr inbounds nuw %struct.dbcs_index, ptr %121, i32 0, i32 0
  %123 = load ptr, ptr %122, align 16, !tbaa !78
  %124 = icmp ne ptr %123, null
  br i1 %124, label %125, label %194

125:                                              ; preds = %108
  %126 = load i8, ptr %17, align 1, !tbaa !42
  %127 = zext i8 %126 to i32
  %128 = xor i32 %127, 128
  %129 = load i8, ptr %16, align 1, !tbaa !42
  %130 = zext i8 %129 to i32
  %131 = xor i32 %130, 128
  %132 = sext i32 %131 to i64
  %133 = getelementptr [256 x %struct.dbcs_index], ptr @jisx0212_decmap, i64 0, i64 %132
  %134 = getelementptr inbounds nuw %struct.dbcs_index, ptr %133, i32 0, i32 1
  %135 = load i8, ptr %134, align 8, !tbaa !80
  %136 = zext i8 %135 to i32
  %137 = icmp sge i32 %128, %136
  br i1 %137, label %138, label %194

138:                                              ; preds = %125
  %139 = load i8, ptr %17, align 1, !tbaa !42
  %140 = zext i8 %139 to i32
  %141 = xor i32 %140, 128
  %142 = load i8, ptr %16, align 1, !tbaa !42
  %143 = zext i8 %142 to i32
  %144 = xor i32 %143, 128
  %145 = sext i32 %144 to i64
  %146 = getelementptr [256 x %struct.dbcs_index], ptr @jisx0212_decmap, i64 0, i64 %145
  %147 = getelementptr inbounds nuw %struct.dbcs_index, ptr %146, i32 0, i32 2
  %148 = load i8, ptr %147, align 1, !tbaa !81
  %149 = zext i8 %148 to i32
  %150 = icmp sle i32 %141, %149
  br i1 %150, label %151, label %194

151:                                              ; preds = %138
  %152 = load i8, ptr %16, align 1, !tbaa !42
  %153 = zext i8 %152 to i32
  %154 = xor i32 %153, 128
  %155 = sext i32 %154 to i64
  %156 = getelementptr [256 x %struct.dbcs_index], ptr @jisx0212_decmap, i64 0, i64 %155
  %157 = getelementptr inbounds nuw %struct.dbcs_index, ptr %156, i32 0, i32 0
  %158 = load ptr, ptr %157, align 16, !tbaa !78
  %159 = load i8, ptr %17, align 1, !tbaa !42
  %160 = zext i8 %159 to i32
  %161 = xor i32 %160, 128
  %162 = load i8, ptr %16, align 1, !tbaa !42
  %163 = zext i8 %162 to i32
  %164 = xor i32 %163, 128
  %165 = sext i32 %164 to i64
  %166 = getelementptr [256 x %struct.dbcs_index], ptr @jisx0212_decmap, i64 0, i64 %165
  %167 = getelementptr inbounds nuw %struct.dbcs_index, ptr %166, i32 0, i32 1
  %168 = load i8, ptr %167, align 8, !tbaa !80
  %169 = zext i8 %168 to i32
  %170 = sub i32 %161, %169
  %171 = sext i32 %170 to i64
  %172 = getelementptr i16, ptr %158, i64 %171
  %173 = load i16, ptr %172, align 2, !tbaa !70
  %174 = zext i16 %173 to i32
  store i32 %174, ptr %13, align 4, !tbaa !19
  %175 = icmp ne i32 %174, 65534
  br i1 %175, label %176, label %194

176:                                              ; preds = %151
  br label %177

177:                                              ; preds = %176
  %178 = load ptr, ptr %11, align 8, !tbaa !3
  %179 = load i32, ptr %13, align 4, !tbaa !19
  %180 = call i32 @_PyUnicodeWriter_WriteChar(ptr noundef %178, i32 noundef %179)
  %181 = icmp slt i32 %180, 0
  br i1 %181, label %182, label %183

182:                                              ; preds = %177
  store i64 -4, ptr %6, align 8
  store i32 1, ptr %14, align 4
  br label %196

183:                                              ; preds = %177
  br label %184

184:                                              ; preds = %183
  br label %185

185:                                              ; preds = %184
  br label %186

186:                                              ; preds = %185
  %187 = load ptr, ptr %9, align 8, !tbaa !68
  %188 = load ptr, ptr %187, align 8, !tbaa !17
  %189 = getelementptr i8, ptr %188, i64 3
  store ptr %189, ptr %187, align 8, !tbaa !17
  %190 = load i64, ptr %10, align 8, !tbaa !28
  %191 = sub i64 %190, 3
  store i64 %191, ptr %10, align 8, !tbaa !28
  br label %192

192:                                              ; preds = %186
  br label %193

193:                                              ; preds = %192
  br label %195

194:                                              ; preds = %151, %138, %125, %108
  store i64 1, ptr %6, align 8
  store i32 1, ptr %14, align 4
  br label %196

195:                                              ; preds = %193
  store i32 0, ptr %14, align 4
  br label %196

196:                                              ; preds = %195, %194, %182, %105
  call void @llvm.lifetime.end.p0(i64 1, ptr %17) #9
  call void @llvm.lifetime.end.p0(i64 1, ptr %16) #9
  %197 = load i32, ptr %14, align 4
  switch i32 %197, label %313 [
    i32 0, label %198
  ]

198:                                              ; preds = %196
  br label %311

199:                                              ; preds = %97
  call void @llvm.lifetime.start.p0(i64 1, ptr %18) #9
  br label %200

200:                                              ; preds = %199
  %201 = load i64, ptr %10, align 8, !tbaa !28
  %202 = icmp slt i64 %201, 2
  br i1 %202, label %203, label %204

203:                                              ; preds = %200
  store i64 -2, ptr %6, align 8
  store i32 1, ptr %14, align 4
  br label %308

204:                                              ; preds = %200
  br label %205

205:                                              ; preds = %204
  br label %206

206:                                              ; preds = %205
  %207 = load ptr, ptr %9, align 8, !tbaa !68
  %208 = load ptr, ptr %207, align 8, !tbaa !17
  %209 = getelementptr i8, ptr %208, i64 1
  %210 = load i8, ptr %209, align 1, !tbaa !42
  store i8 %210, ptr %18, align 1, !tbaa !42
  %211 = load i8, ptr %12, align 1, !tbaa !42
  %212 = zext i8 %211 to i32
  %213 = icmp eq i32 %212, 161
  br i1 %213, label %214, label %227

214:                                              ; preds = %206
  %215 = load i8, ptr %18, align 1, !tbaa !42
  %216 = zext i8 %215 to i32
  %217 = icmp eq i32 %216, 192
  br i1 %217, label %218, label %227

218:                                              ; preds = %214
  br label %219

219:                                              ; preds = %218
  %220 = load ptr, ptr %11, align 8, !tbaa !3
  %221 = call i32 @_PyUnicodeWriter_WriteChar(ptr noundef %220, i32 noundef 65340)
  %222 = icmp slt i32 %221, 0
  br i1 %222, label %223, label %224

223:                                              ; preds = %219
  store i64 -4, ptr %6, align 8
  store i32 1, ptr %14, align 4
  br label %308

224:                                              ; preds = %219
  br label %225

225:                                              ; preds = %224
  br label %226

226:                                              ; preds = %225
  br label %299

227:                                              ; preds = %214, %206
  %228 = load i8, ptr %12, align 1, !tbaa !42
  %229 = zext i8 %228 to i32
  %230 = xor i32 %229, 128
  %231 = sext i32 %230 to i64
  %232 = getelementptr [256 x %struct.dbcs_index], ptr @jisx0208_decmap, i64 0, i64 %231
  %233 = getelementptr inbounds nuw %struct.dbcs_index, ptr %232, i32 0, i32 0
  %234 = load ptr, ptr %233, align 16, !tbaa !78
  %235 = icmp ne ptr %234, null
  br i1 %235, label %236, label %297

236:                                              ; preds = %227
  %237 = load i8, ptr %18, align 1, !tbaa !42
  %238 = zext i8 %237 to i32
  %239 = xor i32 %238, 128
  %240 = load i8, ptr %12, align 1, !tbaa !42
  %241 = zext i8 %240 to i32
  %242 = xor i32 %241, 128
  %243 = sext i32 %242 to i64
  %244 = getelementptr [256 x %struct.dbcs_index], ptr @jisx0208_decmap, i64 0, i64 %243
  %245 = getelementptr inbounds nuw %struct.dbcs_index, ptr %244, i32 0, i32 1
  %246 = load i8, ptr %245, align 8, !tbaa !80
  %247 = zext i8 %246 to i32
  %248 = icmp sge i32 %239, %247
  br i1 %248, label %249, label %297

249:                                              ; preds = %236
  %250 = load i8, ptr %18, align 1, !tbaa !42
  %251 = zext i8 %250 to i32
  %252 = xor i32 %251, 128
  %253 = load i8, ptr %12, align 1, !tbaa !42
  %254 = zext i8 %253 to i32
  %255 = xor i32 %254, 128
  %256 = sext i32 %255 to i64
  %257 = getelementptr [256 x %struct.dbcs_index], ptr @jisx0208_decmap, i64 0, i64 %256
  %258 = getelementptr inbounds nuw %struct.dbcs_index, ptr %257, i32 0, i32 2
  %259 = load i8, ptr %258, align 1, !tbaa !81
  %260 = zext i8 %259 to i32
  %261 = icmp sle i32 %252, %260
  br i1 %261, label %262, label %297

262:                                              ; preds = %249
  %263 = load i8, ptr %12, align 1, !tbaa !42
  %264 = zext i8 %263 to i32
  %265 = xor i32 %264, 128
  %266 = sext i32 %265 to i64
  %267 = getelementptr [256 x %struct.dbcs_index], ptr @jisx0208_decmap, i64 0, i64 %266
  %268 = getelementptr inbounds nuw %struct.dbcs_index, ptr %267, i32 0, i32 0
  %269 = load ptr, ptr %268, align 16, !tbaa !78
  %270 = load i8, ptr %18, align 1, !tbaa !42
  %271 = zext i8 %270 to i32
  %272 = xor i32 %271, 128
  %273 = load i8, ptr %12, align 1, !tbaa !42
  %274 = zext i8 %273 to i32
  %275 = xor i32 %274, 128
  %276 = sext i32 %275 to i64
  %277 = getelementptr [256 x %struct.dbcs_index], ptr @jisx0208_decmap, i64 0, i64 %276
  %278 = getelementptr inbounds nuw %struct.dbcs_index, ptr %277, i32 0, i32 1
  %279 = load i8, ptr %278, align 8, !tbaa !80
  %280 = zext i8 %279 to i32
  %281 = sub i32 %272, %280
  %282 = sext i32 %281 to i64
  %283 = getelementptr i16, ptr %269, i64 %282
  %284 = load i16, ptr %283, align 2, !tbaa !70
  %285 = zext i16 %284 to i32
  store i32 %285, ptr %13, align 4, !tbaa !19
  %286 = icmp ne i32 %285, 65534
  br i1 %286, label %287, label %297

287:                                              ; preds = %262
  br label %288

288:                                              ; preds = %287
  %289 = load ptr, ptr %11, align 8, !tbaa !3
  %290 = load i32, ptr %13, align 4, !tbaa !19
  %291 = call i32 @_PyUnicodeWriter_WriteChar(ptr noundef %289, i32 noundef %290)
  %292 = icmp slt i32 %291, 0
  br i1 %292, label %293, label %294

293:                                              ; preds = %288
  store i64 -4, ptr %6, align 8
  store i32 1, ptr %14, align 4
  br label %308

294:                                              ; preds = %288
  br label %295

295:                                              ; preds = %294
  br label %296

296:                                              ; preds = %295
  br label %298

297:                                              ; preds = %262, %249, %236, %227
  store i64 1, ptr %6, align 8
  store i32 1, ptr %14, align 4
  br label %308

298:                                              ; preds = %296
  br label %299

299:                                              ; preds = %298, %226
  br label %300

300:                                              ; preds = %299
  %301 = load ptr, ptr %9, align 8, !tbaa !68
  %302 = load ptr, ptr %301, align 8, !tbaa !17
  %303 = getelementptr i8, ptr %302, i64 2
  store ptr %303, ptr %301, align 8, !tbaa !17
  %304 = load i64, ptr %10, align 8, !tbaa !28
  %305 = sub i64 %304, 2
  store i64 %305, ptr %10, align 8, !tbaa !28
  br label %306

306:                                              ; preds = %300
  br label %307

307:                                              ; preds = %306
  store i32 0, ptr %14, align 4
  br label %308

308:                                              ; preds = %307, %297, %293, %223, %203
  call void @llvm.lifetime.end.p0(i64 1, ptr %18) #9
  %309 = load i32, ptr %14, align 4
  switch i32 %309, label %313 [
    i32 0, label %310
  ]

310:                                              ; preds = %308
  br label %311

311:                                              ; preds = %310, %198
  br label %312

312:                                              ; preds = %311, %96
  store i32 0, ptr %14, align 4
  br label %313

313:                                              ; preds = %312, %308, %196, %94, %48, %37
  call void @llvm.lifetime.end.p0(i64 4, ptr %13) #9
  call void @llvm.lifetime.end.p0(i64 1, ptr %12) #9
  %314 = load i32, ptr %14, align 4
  switch i32 %314, label %319 [
    i32 0, label %315
    i32 1, label %317
    i32 2, label %19
  ]

315:                                              ; preds = %313
  br label %19, !llvm.loop !85

316:                                              ; preds = %19
  store i64 0, ptr %6, align 8
  br label %317

317:                                              ; preds = %316, %313
  %318 = load i64, ptr %6, align 8
  ret i64 %318

319:                                              ; preds = %313
  unreachable
}