; Function Attrs: nounwind uwtable
define internal range(i64 -4, 2) i64 @euc_jp_decode(ptr readnone captures(none) %0, ptr readnone captures(none) %1, ptr noundef captures(none) %2, i64 noundef %3, ptr noundef %4) #0 {
  %6 = icmp sgt i64 %3, 0
  br i1 %6, label %.lr.ph.preheader, label %.thread102

.lr.ph.preheader:                                 ; preds = %5
  %.pre = load ptr, ptr %2, align 8, !tbaa !37
  br label %.lr.ph

.lr.ph:                                           ; preds = %.lr.ph.preheader, %86
  %7 = phi ptr [ %88, %86 ], [ %.pre, %.lr.ph.preheader ]
  %.060108 = phi i64 [ %89, %86 ], [ %3, %.lr.ph.preheader ]
  %8 = load i8, ptr %7, align 1, !tbaa !34
  %9 = zext i8 %8 to i32
  %10 = icmp sgt i8 %8, -1
  br i1 %10, label %11, label %14

11:                                               ; preds = %.lr.ph
  %12 = tail call i32 @_PyUnicodeWriter_WriteChar(ptr noundef %4, i32 noundef %9) #9
  %13 = icmp slt i32 %12, 0
  br i1 %13, label %.thread102, label %86, !llvm.loop !65

14:                                               ; preds = %.lr.ph
  switch i8 %8, label %54 [
    i8 -114, label %15
    i8 -113, label %26
  ]

15:                                               ; preds = %14
  %16 = icmp eq i64 %.060108, 1
  br i1 %16, label %.thread102, label %17

17:                                               ; preds = %15
  %18 = getelementptr i8, ptr %7, i64 1
  %19 = load i8, ptr %18, align 1, !tbaa !34
  %20 = add i8 %19, 95
  %or.cond = icmp ult i8 %20, 63
  br i1 %or.cond, label %21, label %.thread102

21:                                               ; preds = %17
  %22 = zext i8 %19 to i32
  %23 = add nuw nsw i32 %22, 65216
  %24 = tail call i32 @_PyUnicodeWriter_WriteChar(ptr noundef %4, i32 noundef %23) #9
  %25 = icmp slt i32 %24, 0
  br i1 %25, label %.thread102, label %86

26:                                               ; preds = %14
  %27 = icmp samesign ult i64 %.060108, 3
  br i1 %27, label %.thread102, label %28

28:                                               ; preds = %26
  %29 = getelementptr i8, ptr %7, i64 1
  %30 = load i8, ptr %29, align 1, !tbaa !34
  %31 = xor i8 %30, -128
  %32 = zext i8 %31 to i64
  %33 = getelementptr [256 x %struct.dbcs_index], ptr @jisx0212_decmap, i64 0, i64 %32
  %34 = load ptr, ptr %33, align 16, !tbaa !58
  %.not84 = icmp eq ptr %34, null
  br i1 %.not84, label %.thread102, label %35

35:                                               ; preds = %28
  %36 = getelementptr i8, ptr %7, i64 2
  %37 = load i8, ptr %36, align 1, !tbaa !34
  %38 = xor i8 %37, -128
  %39 = zext i8 %38 to i64
  %40 = getelementptr inbounds nuw i8, ptr %33, i64 8
  %41 = load i8, ptr %40, align 8, !tbaa !60
  %42 = zext i8 %41 to i64
  %.not85 = icmp ult i8 %38, %41
  br i1 %.not85, label %.thread102, label %43

43:                                               ; preds = %35
  %44 = getelementptr inbounds nuw i8, ptr %33, i64 9
  %45 = load i8, ptr %44, align 1, !tbaa !61
  %.not86 = icmp ugt i8 %38, %45
  br i1 %.not86, label %.thread102, label %46

46:                                               ; preds = %43
  %47 = sub nsw i64 %39, %42
  %48 = getelementptr i16, ptr %34, i64 %47
  %49 = load i16, ptr %48, align 2, !tbaa !49
  %.not87 = icmp eq i16 %49, -2
  br i1 %.not87, label %.thread102, label %50

50:                                               ; preds = %46
  %51 = zext i16 %49 to i32
  %52 = tail call i32 @_PyUnicodeWriter_WriteChar(ptr noundef %4, i32 noundef %51) #9
  %53 = icmp slt i32 %52, 0
  br i1 %53, label %.thread102, label %86

54:                                               ; preds = %14
  %55 = icmp eq i64 %.060108, 1
  br i1 %55, label %.thread102, label %56

56:                                               ; preds = %54
  %57 = getelementptr i8, ptr %7, i64 1
  %58 = load i8, ptr %57, align 1, !tbaa !34
  %59 = icmp eq i8 %8, -95
  %60 = icmp eq i8 %58, -64
  %or.cond7 = select i1 %59, i1 %60, i1 false
  br i1 %or.cond7, label %61, label %64

61:                                               ; preds = %56
  %62 = tail call i32 @_PyUnicodeWriter_WriteChar(ptr noundef %4, i32 noundef 65340) #9
  %63 = icmp slt i32 %62, 0
  br i1 %63, label %.thread102, label %86

64:                                               ; preds = %56
  %65 = and i32 %9, 127
  %66 = zext nneg i32 %65 to i64
  %67 = getelementptr [256 x %struct.dbcs_index], ptr @jisx0208_decmap, i64 0, i64 %66
  %68 = load ptr, ptr %67, align 16, !tbaa !58
  %.not = icmp eq ptr %68, null
  br i1 %.not, label %.thread102, label %69

69:                                               ; preds = %64
  %70 = xor i8 %58, -128
  %71 = zext i8 %70 to i64
  %72 = getelementptr inbounds nuw i8, ptr %67, i64 8
  %73 = load i8, ptr %72, align 8, !tbaa !60
  %74 = zext i8 %73 to i64
  %.not81 = icmp ult i8 %70, %73
  br i1 %.not81, label %.thread102, label %75

75:                                               ; preds = %69
  %76 = getelementptr inbounds nuw i8, ptr %67, i64 9
  %77 = load i8, ptr %76, align 1, !tbaa !61
  %.not82 = icmp ugt i8 %70, %77
  br i1 %.not82, label %.thread102, label %78

78:                                               ; preds = %75
  %79 = sub nsw i64 %71, %74
  %80 = getelementptr i16, ptr %68, i64 %79
  %81 = load i16, ptr %80, align 2, !tbaa !49
  %.not83 = icmp eq i16 %81, -2
  br i1 %.not83, label %.thread102, label %82

82:                                               ; preds = %78
  %83 = zext i16 %81 to i32
  %84 = tail call i32 @_PyUnicodeWriter_WriteChar(ptr noundef %4, i32 noundef %83) #9
  %85 = icmp slt i32 %84, 0
  br i1 %85, label %.thread102, label %86

86:                                               ; preds = %61, %82, %50, %21, %11
  %.sink145 = phi i64 [ 1, %11 ], [ 2, %21 ], [ 3, %50 ], [ 2, %82 ], [ 2, %61 ]
  %.sink = phi i64 [ -1, %11 ], [ -2, %21 ], [ -3, %50 ], [ -2, %82 ], [ -2, %61 ]
  %87 = load ptr, ptr %2, align 8, !tbaa !37
  %88 = getelementptr i8, ptr %87, i64 %.sink145
  store ptr %88, ptr %2, align 8, !tbaa !37
  %89 = add nsw i64 %.060108, %.sink
  %90 = icmp sgt i64 %89, 0
  br i1 %90, label %.lr.ph, label %.thread102

.thread102:                                       ; preds = %86, %11, %15, %21, %17, %26, %50, %46, %43, %35, %28, %54, %61, %82, %78, %75, %69, %64, %5
  %.6 = phi i64 [ 0, %5 ], [ 1, %64 ], [ 1, %69 ], [ 1, %75 ], [ 1, %78 ], [ -4, %82 ], [ -4, %61 ], [ -2, %54 ], [ 1, %28 ], [ 1, %35 ], [ 1, %43 ], [ 1, %46 ], [ -4, %50 ], [ -2, %26 ], [ 1, %17 ], [ -4, %21 ], [ -2, %15 ], [ -4, %11 ], [ 0, %86 ]
  ret i64 %.6
}